; Function Attrs: inlinehint nofree norecurse nosync nounwind memory(readwrite, inaccessiblemem: none) uwtable
define internal fastcc void @Tas_ManCancelUntil(ptr noundef captures(none) initializes((64, 68)) %0, i32 noundef %1) unnamed_addr #13 {
  %3 = getelementptr inbounds nuw i8, ptr %0, i64 64
  store i32 %1, ptr %3, align 8, !tbaa !70
  %4 = getelementptr inbounds nuw i8, ptr %0, i64 80
  %5 = getelementptr inbounds nuw i8, ptr %0, i64 68
  %6 = load i32, ptr %5, align 4, !tbaa !71
  %7 = icmp slt i32 %1, %6
  br i1 %7, label %.lr.ph.preheader, label %.critedge

.lr.ph.preheader:                                 ; preds = %2
  %8 = sext i32 %1 to i64
  br label %.lr.ph

.lr.ph:                                           ; preds = %.lr.ph.preheader, %12
  %indvars.iv = phi i64 [ %8, %.lr.ph.preheader ], [ %indvars.iv.next, %12 ]
  %9 = load ptr, ptr %4, align 8, !tbaa !33
  %10 = getelementptr inbounds ptr, ptr %9, i64 %indvars.iv
  %11 = load ptr, ptr %10, align 8, !tbaa !72
  %.not = icmp eq ptr %11, null
  br i1 %.not, label %.critedge, label %12

12:                                               ; preds = %.lr.ph
  %13 = load i64, ptr %11, align 4
  %14 = and i64 %13, -4611686019501129729
  store i64 %14, ptr %11, align 4
  %15 = getelementptr inbounds nuw i8, ptr %11, i64 8
  store i32 -1, ptr %15, align 4, !tbaa !106
  %indvars.iv.next = add nsw i64 %indvars.iv, 1
  %16 = load i32, ptr %5, align 4, !tbaa !71
  %17 = sext i32 %16 to i64
  %18 = icmp slt i64 %indvars.iv.next, %17
  br i1 %18, label %.lr.ph, label %.critedge, !llvm.loop !108

.critedge:                                        ; preds = %.lr.ph, %12, %2
  store i32 %1, ptr %5, align 4, !tbaa !71
  %19 = getelementptr inbounds nuw i8, ptr %0, i64 144
  %20 = load ptr, ptr %19, align 8, !tbaa !43
  %21 = mul nsw i32 %1, 3
  %22 = getelementptr inbounds nuw i8, ptr %20, i64 4
  store i32 %21, ptr %22, align 4, !tbaa !38
  ret void
}